; Function Attrs: nounwind uwtable
define ptr @l___private_Lean_Meta_Tactic_Grind_EMatchTheorem_0__Lean_Meta_Grind_diff(ptr noundef %0, ptr noundef readonly captures(none) %1) local_unnamed_addr #1 {
  %3 = getelementptr inbounds nuw i8, ptr %1, i64 8
  %4 = load ptr, ptr %3, align 8, !tbaa !9
  %5 = ptrtoint ptr %4 to i64
  %6 = and i64 %5, 1
  %.not = icmp eq i64 %6, 0
  br i1 %.not, label %lean_nat_eq.exit, label %7, !prof !14

7:                                                ; preds = %2
  %8 = icmp eq ptr %4, inttoptr (i64 1 to ptr)
  br i1 %8, label %12, label %10

lean_nat_eq.exit:                                 ; preds = %2
  %9 = tail call zeroext i1 @lean_nat_big_eq(ptr noundef %4, ptr noundef nonnull inttoptr (i64 1 to ptr)) #9
  br i1 %9, label %12, label %10

10:                                               ; preds = %7, %lean_nat_eq.exit
  %11 = tail call ptr @l_List_filterTR_loop___at___private_Lean_Meta_Tactic_Grind_EMatchTheorem_0__Lean_Meta_Grind_diff___spec__1(ptr noundef nonnull %1, ptr noundef %0, ptr noundef nonnull inttoptr (i64 1 to ptr))
  br label %12

12:                                               ; preds = %7, %lean_nat_eq.exit, %10
  %.0 = phi ptr [ %11, %10 ], [ %0, %lean_nat_eq.exit ], [ %0, %7 ]
  ret ptr %.0
}